target datalayout = "e-m:e-p270:32:32-p271:32:32-p272:64:64-i64:64-i128:128-f80:128-n8:16:32:64-S128"
target triple = "x86_64-pc-linux-gnu"

%struct.slurm_conf_t = type { i64, ptr, i16, ptr, ptr, ptr, ptr, ptr, i16, ptr, ptr, ptr, ptr, ptr, ptr, ptr, i16, ptr, ptr, ptr, ptr, i16, ptr, ptr, ptr, i64, ptr, ptr, ptr, ptr, i16, ptr, ptr, i16, i32, ptr, i32, ptr, i32, i32, ptr, ptr, i64, i64, ptr, i16, i16, ptr, i32, i32, ptr, i32, ptr, i32, i16, i16, i16, ptr, i16, i16, ptr, ptr, i32, i16, i16, ptr, i32, i16, ptr, ptr, ptr, ptr, i16, ptr, ptr, ptr, ptr, i32, ptr, ptr, ptr, ptr, i16, i16, ptr, i32, i32, i32, i16, i16, ptr, ptr, i16, ptr, ptr, i32, i32, i32, i32, i32, i64, i32, i32, i16, ptr, ptr, i32, ptr, ptr, ptr, i16, i32, ptr, ptr, i16, ptr, ptr, i32, i16, ptr, ptr, ptr, ptr, i32, i32, i16, i16, i32, ptr, i16, ptr, i32, i32, i32, i32, i32, i32, ptr, i16, ptr, ptr, i32, i16, ptr, i32, i16, i16, ptr, ptr, ptr, i16, ptr, ptr, ptr, ptr, i16, i16, ptr, i16, ptr, i16, ptr, i16, ptr, i16, ptr, ptr, ptr, ptr, i16, ptr, ptr, ptr, i32, ptr, i32, ptr, ptr, i16, ptr, ptr, i32, i16, ptr, ptr, i16, i16, ptr, i16, ptr, ptr, ptr, i32, ptr, i16, i16, ptr, ptr, ptr, ptr, ptr, ptr, ptr, ptr, i16, i32, i16, ptr, ptr, ptr, ptr, i32, ptr, ptr, ptr, i16, ptr, ptr, ptr, i16, ptr, i16, ptr, i16, i16, ptr }
%union.pthread_mutex_t = type { %struct.__pthread_mutex_s }
%struct.__pthread_mutex_s = type { i32, i32, i32, i32, i32, i16, i16, %struct.__pthread_internal_list }
%struct.__pthread_internal_list = type { ptr, ptr }
%struct.slurmdbd_conn_t = type { ptr, ptr, %union.pthread_mutex_t, ptr, ptr }
%struct.persist_conn_t = type { ptr, i32, i32, i8, ptr, ptr, ptr, i64, i16, i32, i16, i8, i32, i32, ptr, i16, ptr, i64, i32, ptr, %struct.slurm_trigger_callbacks_t, i16 }
%struct.slurm_trigger_callbacks_t = type { ptr, ptr, ptr, ptr, ptr }
%struct.persist_msg_t = type { ptr, ptr, i16 }
%struct.dbd_rec_msg_t = type { ptr }

@slurm_conf = external global %struct.slurm_conf_t, align 8
@.str.137 = private unnamed_addr constant [41 x i8] c"DBD_REMOVE_RESV message from invalid uid\00", align 1
@.str.138 = private unnamed_addr constant [44 x i8] c"DBD_REMOVE_RESV message from invalid uid %u\00", align 1
@.str.139 = private unnamed_addr constant [35 x i8] c"DBD_REMOVE_RESV: called in CONN %d\00", align 1

; Function Attrs: nounwind uwtable
define internal zeroext i1 @_validate_slurm_user(ptr noundef %0) #0 {
  %2 = alloca i1, align 1
  %3 = alloca ptr, align 8
  %4 = alloca i32, align 4
  %5 = alloca i32, align 4
  store ptr %0, ptr %3, align 8
  call void @llvm.lifetime.start.p0(i64 4, ptr %4) #8
  %6 = load ptr, ptr %3, align 8
  %7 = getelementptr inbounds nuw %struct.slurmdbd_conn_t, ptr %6, i32 0, i32 0
  %8 = load ptr, ptr %7, align 8
  %9 = getelementptr inbounds nuw %struct.persist_conn_t, ptr %8, i32 0, i32 1
  %10 = load i32, ptr %9, align 8
  store i32 %10, ptr %4, align 4
  %11 = load i32, ptr %4, align 4
  %12 = icmp eq i32 %11, 0
  br i1 %12, label %17, label %13

13:                                               ; preds = %1
  %14 = load i32, ptr %4, align 4
  %15 = load i32, ptr getelementptr inbounds nuw (%struct.slurm_conf_t, ptr @slurm_conf, i32 0, i32 173), align 8
  %16 = icmp eq i32 %14, %15
  br i1 %16, label %17, label %18

17:                                               ; preds = %13, %1
  store i1 true, ptr %2, align 1
  store i32 1, ptr %5, align 4
  br label %19

18:                                               ; preds = %13
  store i1 false, ptr %2, align 1
  store i32 1, ptr %5, align 4
  br label %19

19:                                               ; preds = %18, %17
  call void @llvm.lifetime.end.p0(i64 4, ptr %4) #8
  %20 = load i1, ptr %2, align 1
  ret i1 %20
}

; Function Attrs: nounwind uwtable
define internal i32 @_remove_reservation(ptr noundef %0, ptr noundef %1, ptr noundef %2) #0 {
  %4 = alloca ptr, align 8
  %5 = alloca ptr, align 8
  %6 = alloca ptr, align 8
  %7 = alloca i32, align 4
  %8 = alloca ptr, align 8
  %9 = alloca ptr, align 8
  store ptr %0, ptr %4, align 8
  store ptr %1, ptr %5, align 8
  store ptr %2, ptr %6, align 8
  call void @llvm.lifetime.start.p0(i64 4, ptr %7) #8
  store i32 0, ptr %7, align 4
  call void @llvm.lifetime.start.p0(i64 8, ptr %8) #8
  %10 = load ptr, ptr %5, align 8
  %11 = getelementptr inbounds nuw %struct.persist_msg_t, ptr %10, i32 0, i32 1
  %12 = load ptr, ptr %11, align 8
  store ptr %12, ptr %8, align 8
  call void @llvm.lifetime.start.p0(i64 8, ptr %9) #8
  store ptr null, ptr %9, align 8
  %13 = load ptr, ptr %4, align 8
  %14 = call zeroext i1 @_validate_slurm_user(ptr noundef %13)
  br i1 %14, label %22, label %15

15:                                               ; preds = %3
  store ptr @.str.137, ptr %9, align 8
  %16 = load ptr, ptr %4, align 8
  %17 = getelementptr inbounds nuw %struct.slurmdbd_conn_t, ptr %16, i32 0, i32 0
  %18 = load ptr, ptr %17, align 8
  %19 = getelementptr inbounds nuw %struct.persist_conn_t, ptr %18, i32 0, i32 1
  %20 = load i32, ptr %19, align 8
  %21 = call i32 (ptr, ...) @error(ptr noundef @.str.138, i32 noundef %20)
  store i32 2002, ptr %7, align 4
  br label %45

22:                                               ; preds = %3
  br label %23

23:                                               ; preds = %22
  br label %24

24:                                               ; preds = %23
  %25 = call i32 @get_log_level()
  %26 = icmp sge i32 %25, 6
  br i1 %26, label %27, label %33

27:                                               ; preds = %24
  %28 = load ptr, ptr %4, align 8
  %29 = getelementptr inbounds nuw %struct.slurmdbd_conn_t, ptr %28, i32 0, i32 0
  %30 = load ptr, ptr %29, align 8
  %31 = getelementptr inbounds nuw %struct.persist_conn_t, ptr %30, i32 0, i32 9
  %32 = load i32, ptr %31, align 4
  call void (i32, ptr, ...) @log_var(i32 noundef 6, ptr noundef @.str.139, i32 noundef %32)
  br label %33

33:                                               ; preds = %27, %24
  br label %34

34:                                               ; preds = %33
  br label %35

35:                                               ; preds = %34
  br label %36

36:                                               ; preds = %35
  br label %37

37:                                               ; preds = %36
  %38 = load ptr, ptr %4, align 8
  %39 = getelementptr inbounds nuw %struct.slurmdbd_conn_t, ptr %38, i32 0, i32 3
  %40 = load ptr, ptr %39, align 8
  %41 = load ptr, ptr %8, align 8
  %42 = getelementptr inbounds nuw %struct.dbd_rec_msg_t, ptr %41, i32 0, i32 0
  %43 = load ptr, ptr %42, align 8
  %44 = call i32 @acct_storage_g_remove_reservation(ptr noundef %40, ptr noundef %43)
  store i32 %44, ptr %7, align 4
  br label %45

45:                                               ; preds = %37, %15
  %46 = load ptr, ptr %4, align 8
  %47 = getelementptr inbounds nuw %struct.slurmdbd_conn_t, ptr %46, i32 0, i32 0
  %48 = load ptr, ptr %47, align 8
  %49 = load i32, ptr %7, align 4
  %50 = load ptr, ptr %9, align 8
  %51 = call ptr @slurm_persist_make_rc_msg(ptr noundef %48, i32 noundef %49, ptr noundef %50, i16 noundef zeroext 1462)
  %52 = load ptr, ptr %6, align 8
  store ptr %51, ptr %52, align 8
  %53 = load i32, ptr %7, align 4
  call void @llvm.lifetime.end.p0(i64 8, ptr %9) #8
  call void @llvm.lifetime.end.p0(i64 8, ptr %8) #8
  call void @llvm.lifetime.end.p0(i64 4, ptr %7) #8
  ret i32 %53
}