; Function Attrs: nounwind uwtable
define internal fastcc noundef i32 @_remove_reservation(ptr noundef readonly captures(none) %0, ptr readonly captures(none) %.8.val, ptr noundef writeonly captures(none) initializes((0, 8)) %1) unnamed_addr #0 {
  %.val = load ptr, ptr %0, align 8
  %3 = getelementptr i8, ptr %.val, i64 8
  %.val.val = load i32, ptr %3, align 8
  %4 = icmp eq i32 %.val.val, 0
  %5 = load i32, ptr getelementptr inbounds nuw (i8, ptr @slurm_conf, i64 1152), align 8
  %6 = icmp eq i32 %.val.val, %5
  %or.cond.i = select i1 %4, i1 true, i1 %6
  br i1 %or.cond.i, label %9, label %7

7:                                                ; preds = %2
  %8 = tail call i32 (ptr, ...) @error(ptr noundef nonnull @.str.138, i32 noundef %.val.val) #10
  br label %21

9:                                                ; preds = %2
  %10 = tail call i32 @get_log_level() #10
  %11 = icmp sgt i32 %10, 5
  br i1 %11, label %12, label %16

12:                                               ; preds = %9
  %13 = load ptr, ptr %0, align 8
  %14 = getelementptr inbounds nuw i8, ptr %13, i64 60
  %15 = load i32, ptr %14, align 4
  tail call void (i32, ptr, ...) @log_var(i32 noundef 6, ptr noundef nonnull @.str.139, i32 noundef %15) #10
  br label %16

16:                                               ; preds = %12, %9
  %17 = getelementptr inbounds nuw i8, ptr %0, i64 56
  %18 = load ptr, ptr %17, align 8
  %19 = load ptr, ptr %.8.val, align 8
  %20 = tail call i32 @acct_storage_g_remove_reservation(ptr noundef %18, ptr noundef %19) #10
  br label %21

21:                                               ; preds = %16, %7
  %.010 = phi i32 [ %20, %16 ], [ 2002, %7 ]
  %.0 = phi ptr [ null, %16 ], [ @.str.137, %7 ]
  %22 = load ptr, ptr %0, align 8
  %23 = tail call ptr @slurm_persist_make_rc_msg(ptr noundef %22, i32 noundef %.010, ptr noundef %.0, i16 noundef zeroext 1462) #10
  store ptr %23, ptr %1, align 8
  ret i32 %.010
}